target datalayout = "e-m:e-p270:32:32-p271:32:32-p272:64:64-i64:64-i128:128-f80:128-n8:16:32:64-S128"
target triple = "x86_64-pc-linux-gnu"

@FreeList_lock = external global ptr, align 8
@g_assert_poison = external global ptr, align 8
@.str.7 = private unnamed_addr constant [49 x i8] c"src/hotspot/share/gc/g1/g1CommittedRegionMap.cpp\00", align 1
@.str.8 = private unnamed_addr constant [86 x i8] c"guarantee(Thread::current()->is_VM_thread() || FreeList_lock->owned_by_self()) failed\00", align 1
@.str.9 = private unnamed_addr constant [67 x i8] c"G1CommittedRegionMap _active-map MT safety protocol at a safepoint\00", align 1
@Heap_lock = external global ptr, align 8
@.str.10 = private unnamed_addr constant [45 x i8] c"guarantee(Heap_lock->owned_by_self()) failed\00", align 1
@.str.11 = private unnamed_addr constant [72 x i8] c"G1CommittedRegionMap _active-map MT safety protocol outside a safepoint\00", align 1
@_ZN8Universe18_fully_initializedE = external global i8, align 1
@_ZN20SafepointSynchronize6_stateE = external global i32, align 4
@_ZN6Thread12_thr_currentE = external thread_local global ptr, align 8

; Function Attrs: mustprogress nounwind uwtable
define linkonce_odr hidden noundef ptr @_ZN6Thread15current_or_nullEv() #1 comdat align 2 {
  %1 = call align 8 ptr @llvm.threadlocal.address.p0(ptr align 8 @_ZN6Thread12_thr_currentE)
  %2 = load ptr, ptr %1, align 8
  ret ptr %2
}

; Function Attrs: mustprogress nounwind uwtable
define linkonce_odr hidden noundef ptr @_ZN6Thread7currentEv() #1 comdat align 2 {
  %1 = alloca ptr, align 8
  %2 = call noundef ptr @_ZN6Thread15current_or_nullEv()
  store ptr %2, ptr %1, align 8
  %3 = load ptr, ptr %1, align 8
  ret ptr %3
}

; Function Attrs: mustprogress nounwind uwtable
define linkonce_odr hidden noundef zeroext i1 @_ZN20SafepointSynchronize15is_at_safepointEv() #1 comdat align 2 {
  %1 = load volatile i32, ptr @_ZN20SafepointSynchronize6_stateE, align 4
  %2 = icmp eq i32 %1, 2
  ret i1 %2
}

; Function Attrs: mustprogress nounwind uwtable
define linkonce_odr hidden noundef zeroext i1 @_ZN8Universe20is_fully_initializedEv() #1 comdat align 2 {
  %1 = load i8, ptr @_ZN8Universe18_fully_initializedE, align 1
  %2 = trunc i8 %1 to i1
  ret i1 %2
}

; Function Attrs: mustprogress nounwind uwtable
define hidden void @_ZNK20G1CommittedRegionMap26guarantee_mt_safety_activeEv(ptr noundef nonnull align 8 dereferenceable(64) %0) unnamed_addr #1 align 2 {
  %2 = alloca ptr, align 8
  store ptr %0, ptr %2, align 8
  %3 = call noundef zeroext i1 @_ZN8Universe20is_fully_initializedEv()
  br i1 %3, label %5, label %4

4:                                                ; preds = %1
  br label %29

5:                                                ; preds = %1
  %6 = call noundef zeroext i1 @_ZN20SafepointSynchronize15is_at_safepointEv()
  br i1 %6, label %7, label %21

7:                                                ; preds = %5
  br label %8

8:                                                ; preds = %7
  %9 = call noundef ptr @_ZN6Thread7currentEv()
  %10 = load ptr, ptr %9, align 8
  %11 = getelementptr inbounds ptr, ptr %10, i64 6
  %12 = load ptr, ptr %11, align 8
  %13 = call noundef zeroext i1 %12(ptr noundef nonnull align 8 dereferenceable(888) %9)
  br i1 %13, label %19, label %14

14:                                               ; preds = %8
  %15 = load ptr, ptr @FreeList_lock, align 8
  %16 = call noundef zeroext i1 @_ZNK5Mutex13owned_by_selfEv(ptr noundef nonnull align 8 dereferenceable(104) %15)
  br i1 %16, label %19, label %17

17:                                               ; preds = %14
  %18 = load ptr, ptr @g_assert_poison, align 8
  store i8 88, ptr %18, align 1
  call void (ptr, i32, ptr, ptr, ...) @_Z15report_vm_errorPKciS0_S0_z(ptr noundef @.str.7, i32 noundef 188, ptr noundef @.str.8, ptr noundef @.str.9) #6
  unreachable

19:                                               ; preds = %14, %8
  br label %20

20:                                               ; preds = %19
  br label %29

21:                                               ; preds = %5
  br label %22

22:                                               ; preds = %21
  %23 = load ptr, ptr @Heap_lock, align 8
  %24 = call noundef zeroext i1 @_ZNK5Mutex13owned_by_selfEv(ptr noundef nonnull align 8 dereferenceable(104) %23)
  br i1 %24, label %27, label %25

25:                                               ; preds = %22
  %26 = load ptr, ptr @g_assert_poison, align 8
  store i8 88, ptr %26, align 1
  call void (ptr, i32, ptr, ptr, ...) @_Z15report_vm_errorPKciS0_S0_z(ptr noundef @.str.7, i32 noundef 191, ptr noundef @.str.10, ptr noundef @.str.11) #6
  unreachable

27:                                               ; preds = %22
  br label %28

28:                                               ; preds = %27
  br label %29

29:                                               ; preds = %28, %20, %4
  ret void
}