; Function Attrs: mustprogress nounwind uwtable
define hidden void @_ZNK20G1CommittedRegionMap26guarantee_mt_safety_activeEv(ptr nocapture nonnull readnone align 8 %0) unnamed_addr #1 align 2 {
  %2 = load i8, ptr @_ZN8Universe18_fully_initializedE, align 1
  %3 = trunc i8 %2 to i1
  br i1 %3, label %4, label %24

4:                                                ; preds = %1
  %5 = load volatile i32, ptr @_ZN20SafepointSynchronize6_stateE, align 4
  %6 = icmp eq i32 %5, 2
  br i1 %6, label %7, label %19

7:                                                ; preds = %4
  %8 = tail call align 8 ptr @llvm.threadlocal.address.p0(ptr align 8 @_ZN6Thread12_thr_currentE)
  %9 = load ptr, ptr %8, align 8
  %10 = load ptr, ptr %9, align 8
  %11 = getelementptr inbounds i8, ptr %10, i64 48
  %12 = load ptr, ptr %11, align 8
  %13 = tail call noundef zeroext i1 %12(ptr noundef nonnull align 8 dereferenceable(888) %9) #10
  br i1 %13, label %24, label %14

14:                                               ; preds = %7
  %15 = load ptr, ptr @FreeList_lock, align 8
  %16 = tail call noundef zeroext i1 @_ZNK5Mutex13owned_by_selfEv(ptr noundef nonnull align 8 dereferenceable(104) %15) #10
  br i1 %16, label %24, label %17

17:                                               ; preds = %14
  %18 = load ptr, ptr @g_assert_poison, align 8
  store i8 88, ptr %18, align 1
  tail call void (ptr, i32, ptr, ptr, ...) @_Z15report_vm_errorPKciS0_S0_z(ptr noundef nonnull @.str.7, i32 noundef 188, ptr noundef nonnull @.str.8, ptr noundef nonnull @.str.9) #11
  unreachable

19:                                               ; preds = %4
  %20 = load ptr, ptr @Heap_lock, align 8
  %21 = tail call noundef zeroext i1 @_ZNK5Mutex13owned_by_selfEv(ptr noundef nonnull align 8 dereferenceable(104) %20) #10
  br i1 %21, label %24, label %22

22:                                               ; preds = %19
  %23 = load ptr, ptr @g_assert_poison, align 8
  store i8 88, ptr %23, align 1
  tail call void (ptr, i32, ptr, ptr, ...) @_Z15report_vm_errorPKciS0_S0_z(ptr noundef nonnull @.str.7, i32 noundef 191, ptr noundef nonnull @.str.10, ptr noundef nonnull @.str.11) #11
  unreachable

24:                                               ; preds = %19, %14, %7, %1
  ret void
}